; ModuleID = 'bench/linux/original/netevent.ll'
source_filename = "bench/linux/original/netevent.ll"
target datalayout = "e-m:e-p270:32:32-p271:32:32-p272:64:64-i64:64-i128:128-f80:128-n8:16:32:64-S128"
target triple = "x86_64-unknown-linux-gnu"

module asm ".section \22.export_symbol\22,\22a\22 ; __export_symbol_register_netevent_notifier: ; .asciz \22GPL\22 ; .asciz \22\22 ; .balign 8 ; .quad register_netevent_notifier ; .previous"
module asm ".section \22.export_symbol\22,\22a\22 ; __export_symbol_unregister_netevent_notifier: ; .asciz \22GPL\22 ; .asciz \22\22 ; .balign 8 ; .quad unregister_netevent_notifier ; .previous"
module asm ".section \22.export_symbol\22,\22a\22 ; __export_symbol_call_netevent_notifiers: ; .asciz \22GPL\22 ; .asciz \22\22 ; .balign 8 ; .quad call_netevent_notifiers ; .previous"

%struct.atomic_notifier_head = type { %struct.spinlock, ptr }
%struct.spinlock = type { %union.anon }
%union.anon = type { %struct.raw_spinlock }
%struct.raw_spinlock = type { %struct.qspinlock }
%struct.qspinlock = type { %union.anon.0 }
%union.anon.0 = type { %struct.atomic_t }
%struct.atomic_t = type { i32 }

@netevent_notif_chain = internal global %struct.atomic_notifier_head zeroinitializer, align 8
@__UNIQUE_ID___addressable_register_netevent_notifier509 = internal global ptr @register_netevent_notifier, section ".discard.addressable", align 8
@__UNIQUE_ID___addressable_unregister_netevent_notifier510 = internal global ptr @unregister_netevent_notifier, section ".discard.addressable", align 8
@__UNIQUE_ID___addressable_call_netevent_notifiers511 = internal global ptr @call_netevent_notifiers, section ".discard.addressable", align 8
@llvm.compiler.used = appending global [3 x ptr] [ptr @__UNIQUE_ID___addressable_call_netevent_notifiers511, ptr @__UNIQUE_ID___addressable_register_netevent_notifier509, ptr @__UNIQUE_ID___addressable_unregister_netevent_notifier510], section "llvm.metadata"

; Function Attrs: fn_ret_thunk_extern nounwind null_pointer_is_valid
define dso_local i32 @register_netevent_notifier(ptr noundef %0) #0 align 16 {
  %2 = tail call i32 @atomic_notifier_chain_register(ptr noundef nonnull @netevent_notif_chain, ptr noundef %0) #2
  ret i32 %2
}

; Function Attrs: null_pointer_is_valid
declare dso_local i32 @atomic_notifier_chain_register(ptr noundef, ptr noundef) local_unnamed_addr #1

; Function Attrs: fn_ret_thunk_extern nounwind null_pointer_is_valid
define dso_local i32 @unregister_netevent_notifier(ptr noundef %0) #0 align 16 {
  %2 = tail call i32 @atomic_notifier_chain_unregister(ptr noundef nonnull @netevent_notif_chain, ptr noundef %0) #2
  ret i32 %2
}

; Function Attrs: null_pointer_is_valid
declare dso_local i32 @atomic_notifier_chain_unregister(ptr noundef, ptr noundef) local_unnamed_addr #1

; Function Attrs: fn_ret_thunk_extern nounwind null_pointer_is_valid
define dso_local i32 @call_netevent_notifiers(i64 noundef %0, ptr noundef %1) #0 align 16 {
  %3 = tail call i32 @atomic_notifier_call_chain(ptr noundef nonnull @netevent_notif_chain, i64 noundef %0, ptr noundef %1) #2
  ret i32 %3
}

; Function Attrs: null_pointer_is_valid
declare dso_local i32 @atomic_notifier_call_chain(ptr noundef, i64 noundef, ptr noundef) local_unnamed_addr #1


!llvm.module.flags = !{!0, !1, !2, !3, !4}

!0 = !{i32 1, !"wchar_size", i32 2}
!1 = !{i32 8, !"cf-protection-branch", i32 1}
!2 = !{i32 4, !"function_return_thunk_extern", i32 1}
!3 = !{i32 4, !"indirect_branch_cs_prefix", i32 1}
!4 = !{i32 4, !"SkipRaxSetup", i32 1}
